target datalayout = "e-m:e-p270:32:32-p271:32:32-p272:64:64-i64:64-i128:128-f80:128-n8:16:32:64-S128"
target triple = "x86_64-pc-linux-gnu"

%struct.ACoder = type { %struct.GetByteContext, i32, i32, i32 }
%struct.GetByteContext = type { ptr, ptr, ptr }

; Function Attrs: alwaysinline nounwind uwtable
define internal i32 @bytestream_get_byte(ptr noundef %0) #5 {
  %2 = alloca ptr, align 8
  store ptr %0, ptr %2, align 8, !tbaa !103
  %3 = load ptr, ptr %2, align 8, !tbaa !103
  %4 = load ptr, ptr %3, align 8, !tbaa !74
  %5 = getelementptr inbounds i8, ptr %4, i64 1
  store ptr %5, ptr %3, align 8, !tbaa !74
  %6 = load ptr, ptr %2, align 8, !tbaa !103
  %7 = load ptr, ptr %6, align 8, !tbaa !74
  %8 = getelementptr inbounds i8, ptr %7, i64 -1
  %9 = getelementptr inbounds i8, ptr %8, i64 0
  %10 = load i8, ptr %9, align 1, !tbaa !33
  %11 = zext i8 %10 to i32
  ret i32 %11
}

; Function Attrs: alwaysinline nounwind uwtable
define internal i32 @bytestream2_get_byteu(ptr noundef %0) #5 {
  %2 = alloca ptr, align 8
  store ptr %0, ptr %2, align 8, !tbaa !88
  %3 = load ptr, ptr %2, align 8, !tbaa !88
  %4 = getelementptr inbounds nuw %struct.GetByteContext, ptr %3, i32 0, i32 0
  %5 = call i32 @bytestream_get_byte(ptr noundef %4)
  ret i32 %5
}

; Function Attrs: alwaysinline nounwind uwtable
define internal i32 @bytestream2_get_bytes_left(ptr noundef %0) #5 {
  %2 = alloca ptr, align 8
  store ptr %0, ptr %2, align 8, !tbaa !88
  %3 = load ptr, ptr %2, align 8, !tbaa !88
  %4 = getelementptr inbounds nuw %struct.GetByteContext, ptr %3, i32 0, i32 1
  %5 = load ptr, ptr %4, align 8, !tbaa !92
  %6 = load ptr, ptr %2, align 8, !tbaa !88
  %7 = getelementptr inbounds nuw %struct.GetByteContext, ptr %6, i32 0, i32 0
  %8 = load ptr, ptr %7, align 8, !tbaa !90
  %9 = ptrtoint ptr %5 to i64
  %10 = ptrtoint ptr %8 to i64
  %11 = sub i64 %9, %10
  %12 = trunc i64 %11 to i32
  ret i32 %12
}

; Function Attrs: nounwind uwtable
define internal i32 @ac_decode_bool(ptr noundef %0, i32 noundef %1, i32 noundef %2) #1 {
  %4 = alloca i32, align 4
  %5 = alloca ptr, align 8
  %6 = alloca i32, align 4
  %7 = alloca i32, align 4
  %8 = alloca i32, align 4
  %9 = alloca i32, align 4
  %10 = alloca i32, align 4
  %11 = alloca i32, align 4
  %12 = alloca i32, align 4
  %13 = alloca i32, align 4
  store ptr %0, ptr %5, align 8, !tbaa !60
  store i32 %1, ptr %6, align 4, !tbaa !50
  store i32 %2, ptr %7, align 4, !tbaa !50
  call void @llvm.lifetime.start.p0(i64 4, ptr %8) #9
  call void @llvm.lifetime.start.p0(i64 4, ptr %9) #9
  call void @llvm.lifetime.start.p0(i64 4, ptr %10) #9
  call void @llvm.lifetime.start.p0(i64 4, ptr %11) #9
  call void @llvm.lifetime.start.p0(i64 4, ptr %12) #9
  %14 = load ptr, ptr %5, align 8, !tbaa !60
  %15 = getelementptr inbounds nuw %struct.ACoder, ptr %14, i32 0, i32 1
  %16 = load i32, ptr %15, align 8, !tbaa !93
  store i32 %16, ptr %12, align 4, !tbaa !50
  %17 = load ptr, ptr %5, align 8, !tbaa !60
  %18 = getelementptr inbounds nuw %struct.ACoder, ptr %17, i32 0, i32 2
  %19 = load i32, ptr %18, align 4, !tbaa !94
  %20 = load i32, ptr %7, align 4, !tbaa !50
  %21 = load i32, ptr %6, align 4, !tbaa !50
  %22 = add nsw i32 %20, %21
  %23 = udiv i32 %19, %22
  store i32 %23, ptr %8, align 4, !tbaa !50
  %24 = load ptr, ptr %5, align 8, !tbaa !60
  %25 = getelementptr inbounds nuw %struct.ACoder, ptr %24, i32 0, i32 3
  %26 = load i32, ptr %25, align 8, !tbaa !95
  store i32 %26, ptr %11, align 4, !tbaa !50
  %27 = load i32, ptr %6, align 4, !tbaa !50
  %28 = load i32, ptr %8, align 4, !tbaa !50
  %29 = mul i32 %27, %28
  store i32 %29, ptr %9, align 4, !tbaa !50
  %30 = load i32, ptr %8, align 4, !tbaa !50
  %31 = load ptr, ptr %5, align 8, !tbaa !60
  %32 = getelementptr inbounds nuw %struct.ACoder, ptr %31, i32 0, i32 2
  store i32 %30, ptr %32, align 4, !tbaa !94
  %33 = load i32, ptr %11, align 4, !tbaa !50
  %34 = load i32, ptr %12, align 4, !tbaa !50
  %35 = sub i32 %33, %34
  %36 = load i32, ptr %9, align 4, !tbaa !50
  %37 = icmp uge i32 %35, %36
  br i1 %37, label %38, label %100

38:                                               ; preds = %3
  %39 = load i32, ptr %9, align 4, !tbaa !50
  %40 = load i32, ptr %12, align 4, !tbaa !50
  %41 = add i32 %39, %40
  store i32 %41, ptr %12, align 4, !tbaa !50
  %42 = load ptr, ptr %5, align 8, !tbaa !60
  %43 = getelementptr inbounds nuw %struct.ACoder, ptr %42, i32 0, i32 1
  store i32 %41, ptr %43, align 8, !tbaa !93
  %44 = load i32, ptr %7, align 4, !tbaa !50
  %45 = load i32, ptr %8, align 4, !tbaa !50
  %46 = mul i32 %44, %45
  store i32 %46, ptr %10, align 4, !tbaa !50
  %47 = load ptr, ptr %5, align 8, !tbaa !60
  %48 = getelementptr inbounds nuw %struct.ACoder, ptr %47, i32 0, i32 2
  store i32 %46, ptr %48, align 4, !tbaa !94
  br label %49

49:                                               ; preds = %76, %38
  br label %50

50:                                               ; preds = %49
  %51 = load i32, ptr %12, align 4, !tbaa !50
  %52 = load i32, ptr %10, align 4, !tbaa !50
  %53 = load i32, ptr %12, align 4, !tbaa !50
  %54 = add i32 %52, %53
  %55 = xor i32 %51, %54
  %56 = icmp ugt i32 %55, 16777215
  br i1 %56, label %57, label %70

57:                                               ; preds = %50
  %58 = load i32, ptr %10, align 4, !tbaa !50
  %59 = icmp ugt i32 %58, 65535
  br i1 %59, label %60, label %61

60:                                               ; preds = %57
  store i32 1, ptr %4, align 4
  store i32 1, ptr %13, align 4
  br label %155

61:                                               ; preds = %57
  %62 = load i32, ptr %12, align 4, !tbaa !50
  %63 = trunc i32 %62 to i16
  %64 = sext i16 %63 to i32
  %65 = sub nsw i32 0, %64
  %66 = trunc i32 %65 to i16
  %67 = zext i16 %66 to i32
  %68 = load ptr, ptr %5, align 8, !tbaa !60
  %69 = getelementptr inbounds nuw %struct.ACoder, ptr %68, i32 0, i32 2
  store i32 %67, ptr %69, align 4, !tbaa !94
  br label %70

70:                                               ; preds = %61, %50
  %71 = load ptr, ptr %5, align 8, !tbaa !60
  %72 = getelementptr inbounds nuw %struct.ACoder, ptr %71, i32 0, i32 0
  %73 = call i32 @bytestream2_get_bytes_left(ptr noundef %72)
  %74 = icmp sle i32 %73, 0
  br i1 %74, label %75, label %76

75:                                               ; preds = %70
  br label %99

76:                                               ; preds = %70
  %77 = load ptr, ptr %5, align 8, !tbaa !60
  %78 = getelementptr inbounds nuw %struct.ACoder, ptr %77, i32 0, i32 0
  %79 = call i32 @bytestream2_get_byteu(ptr noundef %78)
  %80 = load ptr, ptr %5, align 8, !tbaa !60
  %81 = getelementptr inbounds nuw %struct.ACoder, ptr %80, i32 0, i32 3
  %82 = load i32, ptr %81, align 8, !tbaa !95
  %83 = shl i32 %82, 8
  %84 = or i32 %79, %83
  %85 = load ptr, ptr %5, align 8, !tbaa !60
  %86 = getelementptr inbounds nuw %struct.ACoder, ptr %85, i32 0, i32 3
  store i32 %84, ptr %86, align 8, !tbaa !95
  %87 = load ptr, ptr %5, align 8, !tbaa !60
  %88 = getelementptr inbounds nuw %struct.ACoder, ptr %87, i32 0, i32 2
  %89 = load i32, ptr %88, align 4, !tbaa !94
  %90 = shl i32 %89, 8
  store i32 %90, ptr %10, align 4, !tbaa !50
  %91 = load ptr, ptr %5, align 8, !tbaa !60
  %92 = getelementptr inbounds nuw %struct.ACoder, ptr %91, i32 0, i32 2
  store i32 %90, ptr %92, align 4, !tbaa !94
  %93 = load ptr, ptr %5, align 8, !tbaa !60
  %94 = getelementptr inbounds nuw %struct.ACoder, ptr %93, i32 0, i32 1
  %95 = load i32, ptr %94, align 8, !tbaa !93
  %96 = shl i32 %95, 8
  %97 = load ptr, ptr %5, align 8, !tbaa !60
  %98 = getelementptr inbounds nuw %struct.ACoder, ptr %97, i32 0, i32 1
  store i32 %96, ptr %98, align 8, !tbaa !93
  store i32 %96, ptr %12, align 4, !tbaa !50
  br label %49

99:                                               ; preds = %75
  store i32 -1, ptr %4, align 4
  store i32 1, ptr %13, align 4
  br label %155

100:                                              ; preds = %3
  %101 = load i32, ptr %9, align 4, !tbaa !50
  %102 = load ptr, ptr %5, align 8, !tbaa !60
  %103 = getelementptr inbounds nuw %struct.ACoder, ptr %102, i32 0, i32 2
  store i32 %101, ptr %103, align 4, !tbaa !94
  br label %104

104:                                              ; preds = %131, %100
  br label %105

105:                                              ; preds = %104
  %106 = load i32, ptr %12, align 4, !tbaa !50
  %107 = load i32, ptr %9, align 4, !tbaa !50
  %108 = load i32, ptr %12, align 4, !tbaa !50
  %109 = add i32 %107, %108
  %110 = xor i32 %106, %109
  %111 = icmp ugt i32 %110, 16777215
  br i1 %111, label %112, label %125

112:                                              ; preds = %105
  %113 = load i32, ptr %9, align 4, !tbaa !50
  %114 = icmp ugt i32 %113, 65535
  br i1 %114, label %115, label %116

115:                                              ; preds = %112
  store i32 0, ptr %4, align 4
  store i32 1, ptr %13, align 4
  br label %155

116:                                              ; preds = %112
  %117 = load i32, ptr %12, align 4, !tbaa !50
  %118 = trunc i32 %117 to i16
  %119 = sext i16 %118 to i32
  %120 = sub nsw i32 0, %119
  %121 = trunc i32 %120 to i16
  %122 = zext i16 %121 to i32
  %123 = load ptr, ptr %5, align 8, !tbaa !60
  %124 = getelementptr inbounds nuw %struct.ACoder, ptr %123, i32 0, i32 2
  store i32 %122, ptr %124, align 4, !tbaa !94
  br label %125

125:                                              ; preds = %116, %105
  %126 = load ptr, ptr %5, align 8, !tbaa !60
  %127 = getelementptr inbounds nuw %struct.ACoder, ptr %126, i32 0, i32 0
  %128 = call i32 @bytestream2_get_bytes_left(ptr noundef %127)
  %129 = icmp sle i32 %128, 0
  br i1 %129, label %130, label %131

130:                                              ; preds = %125
  br label %154

131:                                              ; preds = %125
  %132 = load ptr, ptr %5, align 8, !tbaa !60
  %133 = getelementptr inbounds nuw %struct.ACoder, ptr %132, i32 0, i32 0
  %134 = call i32 @bytestream2_get_byteu(ptr noundef %133)
  %135 = load ptr, ptr %5, align 8, !tbaa !60
  %136 = getelementptr inbounds nuw %struct.ACoder, ptr %135, i32 0, i32 3
  %137 = load i32, ptr %136, align 8, !tbaa !95
  %138 = shl i32 %137, 8
  %139 = or i32 %134, %138
  %140 = load ptr, ptr %5, align 8, !tbaa !60
  %141 = getelementptr inbounds nuw %struct.ACoder, ptr %140, i32 0, i32 3
  store i32 %139, ptr %141, align 8, !tbaa !95
  %142 = load ptr, ptr %5, align 8, !tbaa !60
  %143 = getelementptr inbounds nuw %struct.ACoder, ptr %142, i32 0, i32 2
  %144 = load i32, ptr %143, align 4, !tbaa !94
  %145 = shl i32 %144, 8
  store i32 %145, ptr %9, align 4, !tbaa !50
  %146 = load ptr, ptr %5, align 8, !tbaa !60
  %147 = getelementptr inbounds nuw %struct.ACoder, ptr %146, i32 0, i32 2
  store i32 %145, ptr %147, align 4, !tbaa !94
  %148 = load ptr, ptr %5, align 8, !tbaa !60
  %149 = getelementptr inbounds nuw %struct.ACoder, ptr %148, i32 0, i32 1
  %150 = load i32, ptr %149, align 8, !tbaa !93
  %151 = shl i32 %150, 8
  %152 = load ptr, ptr %5, align 8, !tbaa !60
  %153 = getelementptr inbounds nuw %struct.ACoder, ptr %152, i32 0, i32 1
  store i32 %151, ptr %153, align 8, !tbaa !93
  store i32 %151, ptr %12, align 4, !tbaa !50
  br label %104

154:                                              ; preds = %130
  store i32 -1, ptr %4, align 4
  store i32 1, ptr %13, align 4
  br label %155

155:                                              ; preds = %154, %115, %99, %60
  call void @llvm.lifetime.end.p0(i64 4, ptr %12) #9
  call void @llvm.lifetime.end.p0(i64 4, ptr %11) #9
  call void @llvm.lifetime.end.p0(i64 4, ptr %10) #9
  call void @llvm.lifetime.end.p0(i64 4, ptr %9) #9
  call void @llvm.lifetime.end.p0(i64 4, ptr %8) #9
  %156 = load i32, ptr %4, align 4
  ret i32 %156
}