; Function Attrs: nofree norecurse nosync nounwind memory(read, argmem: readwrite, inaccessiblemem: none) uwtable
define internal fastcc range(i32 -1, 2) i32 @ac_decode_bool(ptr noundef captures(none) %0, i32 noundef %1, i32 noundef %2) unnamed_addr #8 {
  %4 = getelementptr inbounds nuw i8, ptr %0, i64 24
  %5 = load i32, ptr %4, align 8, !tbaa !55
  %6 = getelementptr inbounds nuw i8, ptr %0, i64 28
  %7 = load i32, ptr %6, align 4, !tbaa !56
  %8 = add nsw i32 %2, %1
  %9 = udiv i32 %7, %8
  %10 = getelementptr inbounds nuw i8, ptr %0, i64 32
  %11 = load i32, ptr %10, align 8, !tbaa !59
  %12 = mul i32 %9, %1
  %13 = sub i32 %11, %5
  %.not = icmp ult i32 %13, %12
  br i1 %.not, label %46, label %14

14:                                               ; preds = %3
  %15 = add i32 %12, %5
  store i32 %15, ptr %4, align 8, !tbaa !55
  %16 = mul i32 %9, %2
  store i32 %16, ptr %6, align 4, !tbaa !56
  %17 = getelementptr inbounds nuw i8, ptr %0, i64 8
  br label %18

18:                                               ; preds = %38, %14
  %19 = phi i32 [ %11, %14 ], [ %43, %38 ]
  %.049 = phi i32 [ %16, %14 ], [ %44, %38 ]
  %20 = phi i32 [ %15, %14 ], [ %45, %38 ]
  %21 = add i32 %20, %.049
  %22 = xor i32 %21, %20
  %23 = icmp ugt i32 %22, 16777215
  br i1 %23, label %24, label %29

24:                                               ; preds = %18
  %25 = icmp ugt i32 %.049, 65535
  br i1 %25, label %.loopexit, label %26

26:                                               ; preds = %24
  %27 = sub i32 0, %20
  %28 = and i32 %27, 65535
  store i32 %28, ptr %6, align 4, !tbaa !56
  br label %29

29:                                               ; preds = %26, %18
  %30 = phi i32 [ %28, %26 ], [ %.049, %18 ]
  %31 = load ptr, ptr %17, align 8, !tbaa !54
  %32 = load ptr, ptr %0, align 8, !tbaa !57
  %33 = ptrtoint ptr %31 to i64
  %34 = ptrtoint ptr %32 to i64
  %35 = sub i64 %33, %34
  %36 = trunc i64 %35 to i32
  %37 = icmp slt i32 %36, 1
  br i1 %37, label %.loopexit, label %38

38:                                               ; preds = %29
  %39 = getelementptr inbounds nuw i8, ptr %32, i64 1
  store ptr %39, ptr %0, align 8, !tbaa !58
  %40 = load i8, ptr %32, align 1, !tbaa !29
  %41 = zext i8 %40 to i32
  %42 = shl i32 %19, 8
  %43 = or disjoint i32 %42, %41
  store i32 %43, ptr %10, align 8, !tbaa !59
  %44 = shl i32 %30, 8
  store i32 %44, ptr %6, align 4, !tbaa !56
  %45 = shl i32 %20, 8
  store i32 %45, ptr %4, align 8, !tbaa !55
  br label %18

46:                                               ; preds = %3
  store i32 %12, ptr %6, align 4, !tbaa !56
  %47 = getelementptr inbounds nuw i8, ptr %0, i64 8
  br label %48

48:                                               ; preds = %68, %46
  %49 = phi i32 [ %11, %46 ], [ %73, %68 ]
  %.050 = phi i32 [ %12, %46 ], [ %74, %68 ]
  %50 = phi i32 [ %5, %46 ], [ %75, %68 ]
  %51 = add i32 %50, %.050
  %52 = xor i32 %51, %50
  %53 = icmp ugt i32 %52, 16777215
  br i1 %53, label %54, label %59

54:                                               ; preds = %48
  %55 = icmp ugt i32 %.050, 65535
  br i1 %55, label %.loopexit, label %56

56:                                               ; preds = %54
  %57 = sub i32 0, %50
  %58 = and i32 %57, 65535
  store i32 %58, ptr %6, align 4, !tbaa !56
  br label %59

59:                                               ; preds = %56, %48
  %60 = phi i32 [ %58, %56 ], [ %.050, %48 ]
  %61 = load ptr, ptr %47, align 8, !tbaa !54
  %62 = load ptr, ptr %0, align 8, !tbaa !57
  %63 = ptrtoint ptr %61 to i64
  %64 = ptrtoint ptr %62 to i64
  %65 = sub i64 %63, %64
  %66 = trunc i64 %65 to i32
  %67 = icmp slt i32 %66, 1
  br i1 %67, label %.loopexit, label %68

68:                                               ; preds = %59
  %69 = getelementptr inbounds nuw i8, ptr %62, i64 1
  store ptr %69, ptr %0, align 8, !tbaa !58
  %70 = load i8, ptr %62, align 1, !tbaa !29
  %71 = zext i8 %70 to i32
  %72 = shl i32 %49, 8
  %73 = or disjoint i32 %72, %71
  store i32 %73, ptr %10, align 8, !tbaa !59
  %74 = shl i32 %60, 8
  store i32 %74, ptr %6, align 4, !tbaa !56
  %75 = shl i32 %50, 8
  store i32 %75, ptr %4, align 8, !tbaa !55
  br label %48

.loopexit:                                        ; preds = %29, %24, %59, %54
  %.048 = phi i32 [ -1, %59 ], [ 0, %54 ], [ -1, %29 ], [ 1, %24 ]
  ret i32 %.048
}